target datalayout = "e-m:e-p270:32:32-p271:32:32-p272:64:64-i64:64-i128:128-f80:128-n8:16:32:64-S128"
target triple = "x86_64-pc-linux-gnu"

@db_conn = dso_local global ptr null, align 8
@have_db_conn = dso_local global i8 0, align 1
@exit_code = dso_local global i32 0, align 4
@readonly_flag = dso_local global i32 0, align 4
@stderr = external global ptr, align 8
@.str.34 = private unnamed_addr constant [5 x i8] c"dump\00", align 1
@.str.36 = private unnamed_addr constant [5 x i8] c"load\00", align 1
@.str.59 = private unnamed_addr constant [42 x i8] c"Can't run this command in readonly mode.\0A\00", align 1
@.str.73 = private unnamed_addr constant [36 x i8] c"No valid entity in archive command\0A\00", align 1
@.str.74 = private unnamed_addr constant [26 x i8] c"Input line must include, \00", align 1
@.str.75 = private unnamed_addr constant [19 x i8] c"\22Dump\22, or \22load\22\0A\00", align 1

; Function Attrs: nounwind uwtable
define internal void @_archive_it(i32 noundef %0, ptr noundef %1) #0 {
  %3 = alloca i32, align 4
  %4 = alloca ptr, align 8
  %5 = alloca i32, align 4
  %6 = alloca i32, align 4
  %7 = alloca i32, align 4
  store i32 %0, ptr %3, align 4
  store ptr %1, ptr %4, align 8
  call void @llvm.lifetime.start.p0(i64 4, ptr %5) #12
  store i32 0, ptr %5, align 4
  call void @llvm.lifetime.start.p0(i64 4, ptr %6) #12
  store i32 0, ptr %6, align 4
  %8 = load i8, ptr @have_db_conn, align 1, !range !12, !noundef !13
  %9 = trunc i8 %8 to i1
  br i1 %9, label %11, label %10

10:                                               ; preds = %2
  store i32 1, ptr @exit_code, align 4
  store i32 1, ptr %7, align 4
  br label %84

11:                                               ; preds = %2
  %12 = load i32, ptr @readonly_flag, align 4
  %13 = icmp ne i32 %12, 0
  br i1 %13, label %14, label %17

14:                                               ; preds = %11
  store i32 1, ptr @exit_code, align 4
  %15 = load ptr, ptr @stderr, align 8
  %16 = call i32 (ptr, ptr, ...) @fprintf(ptr noundef %15, ptr noundef @.str.59) #12
  store i32 1, ptr %7, align 4
  br label %84

17:                                               ; preds = %11
  %18 = load ptr, ptr %4, align 8
  %19 = getelementptr inbounds ptr, ptr %18, i64 0
  %20 = load ptr, ptr %19, align 8
  %21 = icmp ne ptr %20, null
  br i1 %21, label %23, label %22

22:                                               ; preds = %17
  br label %71

23:                                               ; preds = %17
  %24 = load ptr, ptr %4, align 8
  %25 = getelementptr inbounds ptr, ptr %24, i64 0
  %26 = load ptr, ptr %25, align 8
  %27 = call i64 @strlen(ptr noundef %26) #16
  %28 = trunc i64 %27 to i32
  store i32 %28, ptr %6, align 4
  %29 = load ptr, ptr @db_conn, align 8
  %30 = call i32 @slurmdb_connection_commit(ptr noundef %29, i1 noundef zeroext false)
  %31 = load ptr, ptr %4, align 8
  %32 = getelementptr inbounds ptr, ptr %31, i64 0
  %33 = load ptr, ptr %32, align 8
  %34 = load i32, ptr %6, align 4
  %35 = icmp sgt i32 %34, 1
  br i1 %35, label %36, label %38

36:                                               ; preds = %23
  %37 = load i32, ptr %6, align 4
  br label %39

38:                                               ; preds = %23
  br label %39

39:                                               ; preds = %38, %36
  %40 = phi i32 [ %37, %36 ], [ 1, %38 ]
  %41 = sext i32 %40 to i64
  %42 = call i32 @xstrncasecmp(ptr noundef %33, ptr noundef @.str.34, i64 noundef %41)
  %43 = icmp eq i32 %42, 0
  br i1 %43, label %44, label %50

44:                                               ; preds = %39
  %45 = load i32, ptr %3, align 4
  %46 = sub nsw i32 %45, 1
  %47 = load ptr, ptr %4, align 8
  %48 = getelementptr inbounds ptr, ptr %47, i64 1
  %49 = call i32 @sacctmgr_archive_dump(i32 noundef %46, ptr noundef %48)
  store i32 %49, ptr %5, align 4
  br label %79

50:                                               ; preds = %39
  %51 = load ptr, ptr %4, align 8
  %52 = getelementptr inbounds ptr, ptr %51, i64 0
  %53 = load ptr, ptr %52, align 8
  %54 = load i32, ptr %6, align 4
  %55 = icmp sgt i32 %54, 1
  br i1 %55, label %56, label %58

56:                                               ; preds = %50
  %57 = load i32, ptr %6, align 4
  br label %59

58:                                               ; preds = %50
  br label %59

59:                                               ; preds = %58, %56
  %60 = phi i32 [ %57, %56 ], [ 1, %58 ]
  %61 = sext i32 %60 to i64
  %62 = call i32 @xstrncasecmp(ptr noundef %53, ptr noundef @.str.36, i64 noundef %61)
  %63 = icmp eq i32 %62, 0
  br i1 %63, label %64, label %70

64:                                               ; preds = %59
  %65 = load i32, ptr %3, align 4
  %66 = sub nsw i32 %65, 1
  %67 = load ptr, ptr %4, align 8
  %68 = getelementptr inbounds ptr, ptr %67, i64 1
  %69 = call i32 @sacctmgr_archive_load(i32 noundef %66, ptr noundef %68)
  store i32 %69, ptr %5, align 4
  br label %78

70:                                               ; preds = %59
  br label %71

71:                                               ; preds = %70, %22
  store i32 1, ptr @exit_code, align 4
  %72 = load ptr, ptr @stderr, align 8
  %73 = call i32 (ptr, ptr, ...) @fprintf(ptr noundef %72, ptr noundef @.str.73) #12
  %74 = load ptr, ptr @stderr, align 8
  %75 = call i32 (ptr, ptr, ...) @fprintf(ptr noundef %74, ptr noundef @.str.74) #12
  %76 = load ptr, ptr @stderr, align 8
  %77 = call i32 (ptr, ptr, ...) @fprintf(ptr noundef %76, ptr noundef @.str.75) #12
  br label %78

78:                                               ; preds = %71, %64
  br label %79

79:                                               ; preds = %78, %44
  %80 = load i32, ptr %5, align 4
  %81 = icmp ne i32 %80, 0
  br i1 %81, label %82, label %83

82:                                               ; preds = %79
  store i32 1, ptr @exit_code, align 4
  br label %83

83:                                               ; preds = %82, %79
  store i32 0, ptr %7, align 4
  br label %84

84:                                               ; preds = %83, %14, %10
  call void @llvm.lifetime.end.p0(i64 4, ptr %6) #12
  call void @llvm.lifetime.end.p0(i64 4, ptr %5) #12
  %85 = load i32, ptr %7, align 4
  switch i32 %85, label %87 [
    i32 0, label %86
    i32 1, label %86
  ]

86:                                               ; preds = %84, %84
  ret void

87:                                               ; preds = %84
  unreachable
}