; Function Attrs: nounwind uwtable
define internal fastcc void @_archive_it(i32 noundef range(i32 0, 2147483647) %0, ptr noundef %1) unnamed_addr #7 {
  %3 = load i8, ptr @have_db_conn, align 1, !range !14, !noundef !15
  %4 = trunc nuw i8 %3 to i1
  br i1 %4, label %6, label %5

5:                                                ; preds = %2
  store i32 1, ptr @exit_code, align 4
  br label %43

6:                                                ; preds = %2
  %7 = load i32, ptr @readonly_flag, align 4
  %.not = icmp eq i32 %7, 0
  br i1 %.not, label %11, label %8

8:                                                ; preds = %6
  store i32 1, ptr @exit_code, align 4
  %9 = load ptr, ptr @stderr, align 8
  %10 = tail call i64 @fwrite(ptr nonnull @.str.59, i64 41, i64 1, ptr %9) #16
  br label %43

11:                                               ; preds = %6
  %12 = load ptr, ptr %1, align 8
  %.not13 = icmp eq ptr %12, null
  br i1 %.not13, label %.thread, label %13

13:                                               ; preds = %11
  %14 = tail call i64 @strlen(ptr noundef nonnull dereferenceable(1) %12) #21
  %15 = trunc i64 %14 to i32
  %16 = load ptr, ptr @db_conn, align 8
  %17 = tail call i32 @slurmdb_connection_commit(ptr noundef %16, i1 noundef zeroext false) #15
  %18 = load ptr, ptr %1, align 8
  %19 = tail call i32 @llvm.smax.i32(i32 %15, i32 1)
  %20 = zext nneg i32 %19 to i64
  %21 = tail call i32 @xstrncasecmp(ptr noundef %18, ptr noundef nonnull @.str.34, i64 noundef %20) #15
  %22 = icmp eq i32 %21, 0
  br i1 %22, label %23, label %27

23:                                               ; preds = %13
  %24 = add nsw i32 %0, -1
  %25 = getelementptr inbounds nuw i8, ptr %1, i64 8
  %26 = tail call i32 @sacctmgr_archive_dump(i32 noundef %24, ptr noundef nonnull %25) #15
  br label %41

27:                                               ; preds = %13
  %28 = load ptr, ptr %1, align 8
  %29 = tail call i32 @xstrncasecmp(ptr noundef %28, ptr noundef nonnull @.str.36, i64 noundef %20) #15
  %30 = icmp eq i32 %29, 0
  br i1 %30, label %31, label %.thread

31:                                               ; preds = %27
  %32 = add nsw i32 %0, -1
  %33 = getelementptr inbounds nuw i8, ptr %1, i64 8
  %34 = tail call i32 @sacctmgr_archive_load(i32 noundef %32, ptr noundef nonnull %33) #15
  br label %41

.thread:                                          ; preds = %11, %27
  store i32 1, ptr @exit_code, align 4
  %35 = load ptr, ptr @stderr, align 8
  %36 = tail call i64 @fwrite(ptr nonnull @.str.73, i64 35, i64 1, ptr %35) #16
  %37 = load ptr, ptr @stderr, align 8
  %38 = tail call i64 @fwrite(ptr nonnull @.str.74, i64 25, i64 1, ptr %37) #16
  %39 = load ptr, ptr @stderr, align 8
  %40 = tail call i64 @fwrite(ptr nonnull @.str.75, i64 18, i64 1, ptr %39) #16
  br label %43

41:                                               ; preds = %31, %23
  %.0 = phi i32 [ %26, %23 ], [ %34, %31 ]
  %.not14 = icmp eq i32 %.0, 0
  br i1 %.not14, label %43, label %42

42:                                               ; preds = %41
  store i32 1, ptr @exit_code, align 4
  br label %43

43:                                               ; preds = %.thread, %41, %42, %8, %5
  ret void
}